; Function Attrs: nounwind uwtable
define range(i32 -44, 1) i32 @arkRelaxSetMaxIters(ptr noundef %0, i32 noundef %1) local_unnamed_addr #0 {
  %.not.i = icmp eq ptr %0, null
  br i1 %.not.i, label %3, label %4

3:                                                ; preds = %2
  tail call void (ptr, i32, i32, ptr, ptr, ptr, ...) @arkProcessError(ptr noundef null, i32 noundef -21, i32 noundef 42, ptr noundef nonnull @__func__.arkRelaxSetMaxIters, ptr noundef nonnull @.str, ptr noundef nonnull @.str.15) #8
  br label %arkRelaxAccessMem.exit.thread

4:                                                ; preds = %2
  %5 = getelementptr inbounds nuw i8, ptr %0, i64 648
  %6 = load ptr, ptr %5, align 8
  %.not11.i = icmp eq ptr %6, null
  br i1 %.not11.i, label %7, label %arkRelaxAccessMem.exit

7:                                                ; preds = %4
  tail call void (ptr, i32, i32, ptr, ptr, ptr, ...) @arkProcessError(ptr noundef nonnull %0, i32 noundef -44, i32 noundef 50, ptr noundef nonnull @__func__.arkRelaxSetMaxIters, ptr noundef nonnull @.str, ptr noundef nonnull @.str.19) #8
  br label %arkRelaxAccessMem.exit.thread

arkRelaxAccessMem.exit:                           ; preds = %4
  %8 = icmp sgt i32 %1, 0
  %9 = getelementptr inbounds nuw i8, ptr %6, i64 168
  br i1 %8, label %10, label %11

10:                                               ; preds = %arkRelaxAccessMem.exit
  store i32 %1, ptr %9, align 8
  br label %arkRelaxAccessMem.exit.thread

11:                                               ; preds = %arkRelaxAccessMem.exit
  store i32 10, ptr %9, align 8
  br label %arkRelaxAccessMem.exit.thread

arkRelaxAccessMem.exit.thread:                    ; preds = %3, %7, %10, %11
  %.0 = phi i32 [ 0, %11 ], [ 0, %10 ], [ -21, %3 ], [ -44, %7 ]
  ret i32 %.0
}